target datalayout = "e-m:e-p270:32:32-p271:32:32-p272:64:64-i64:64-i128:128-f80:128-n8:16:32:64-S128"
target triple = "x86_64-pc-linux-gnu"

%"class.net::QuicData" = type <{ ptr, ptr, i64, i8, [7 x i8] }>

@_ZN3net19QuicEncryptedPacketC1EPKcmb = unnamed_addr alias void (ptr, ptr, i64, i1), ptr @_ZN3net19QuicEncryptedPacketC2EPKcmb

; Function Attrs: mustprogress nounwind uwtable
define linkonce_odr noundef ptr @_ZNK3net8QuicData4dataEv(ptr noundef nonnull align 8 dereferenceable(25) %0) #1 comdat align 2 {
  %2 = alloca ptr, align 8
  store ptr %0, ptr %2, align 8, !tbaa !257
  %3 = load ptr, ptr %2, align 8
  %4 = getelementptr inbounds nuw %"class.net::QuicData", ptr %3, i32 0, i32 1
  %5 = load ptr, ptr %4, align 8, !tbaa !259
  ret ptr %5
}

; Function Attrs: mustprogress nounwind uwtable
define linkonce_odr noundef i64 @_ZNK3net8QuicData6lengthEv(ptr noundef nonnull align 8 dereferenceable(25) %0) #1 comdat align 2 {
  %2 = alloca ptr, align 8
  store ptr %0, ptr %2, align 8, !tbaa !257
  %3 = load ptr, ptr %2, align 8
  %4 = getelementptr inbounds nuw %"class.net::QuicData", ptr %3, i32 0, i32 2
  %5 = load i64, ptr %4, align 8, !tbaa !261
  ret i64 %5
}

; Function Attrs: mustprogress uwtable
define noundef ptr @_ZNK3net19QuicEncryptedPacket5CloneEv(ptr noundef nonnull align 8 dereferenceable(25) %0) #0 align 2 personality ptr @__gxx_personality_v0 {
  %2 = alloca ptr, align 8
  %3 = alloca ptr, align 8
  %4 = alloca ptr, align 8
  %5 = alloca i32, align 4
  store ptr %0, ptr %2, align 8, !tbaa !272
  %6 = load ptr, ptr %2, align 8
  call void @llvm.lifetime.start.p0(i64 8, ptr %3) #18
  %7 = call noundef i64 @_ZNK3net8QuicData6lengthEv(ptr noundef nonnull align 8 dereferenceable(25) %6)
  %8 = call noalias noundef nonnull ptr @_Znam(i64 noundef %7) #24
  store ptr %8, ptr %3, align 8, !tbaa !66
  %9 = load ptr, ptr %3, align 8, !tbaa !66
  %10 = call noundef ptr @_ZNK3net8QuicData4dataEv(ptr noundef nonnull align 8 dereferenceable(25) %6)
  %11 = call noundef i64 @_ZNK3net8QuicData6lengthEv(ptr noundef nonnull align 8 dereferenceable(25) %6)
  call void @llvm.memcpy.p0.p0.i64(ptr align 1 %9, ptr align 1 %10, i64 %11, i1 false)
  %12 = call noalias noundef nonnull ptr @_Znwm(i64 noundef 32) #24
  %13 = load ptr, ptr %3, align 8, !tbaa !66
  %14 = invoke noundef i64 @_ZNK3net8QuicData6lengthEv(ptr noundef nonnull align 8 dereferenceable(25) %6)
          to label %15 unwind label %17

15:                                               ; preds = %1
  invoke void @_ZN3net19QuicEncryptedPacketC1EPKcmb(ptr noundef nonnull align 8 dereferenceable(25) %12, ptr noundef %13, i64 noundef %14, i1 noundef zeroext true)
          to label %16 unwind label %17

16:                                               ; preds = %15
  call void @llvm.lifetime.end.p0(i64 8, ptr %3) #18
  ret ptr %12

17:                                               ; preds = %15, %1
  %18 = landingpad { ptr, i32 }
          cleanup
  %19 = extractvalue { ptr, i32 } %18, 0
  store ptr %19, ptr %4, align 8
  %20 = extractvalue { ptr, i32 } %18, 1
  store i32 %20, ptr %5, align 4
  call void @_ZdlPv(ptr noundef %12) #23
  call void @llvm.lifetime.end.p0(i64 8, ptr %3) #18
  br label %21

21:                                               ; preds = %17
  %22 = load ptr, ptr %4, align 8
  %23 = load i32, ptr %5, align 4
  %24 = insertvalue { ptr, i32 } poison, ptr %22, 0
  %25 = insertvalue { ptr, i32 } %24, i32 %23, 1
  resume { ptr, i32 } %25
}