; Function Attrs: mustprogress uwtable
define noundef nonnull ptr @_ZNK3net19QuicEncryptedPacket5CloneEv(ptr noundef nonnull readonly align 8 captures(none) dereferenceable(25) %0) local_unnamed_addr #3 align 2 personality ptr @__gxx_personality_v0 {
  %2 = getelementptr inbounds nuw i8, ptr %0, i64 16
  %3 = load i64, ptr %2, align 8, !tbaa !206
  %4 = tail call noalias noundef nonnull ptr @_Znam(i64 noundef %3) #28
  %5 = getelementptr inbounds nuw i8, ptr %0, i64 8
  %6 = load ptr, ptr %5, align 8, !tbaa !204
  tail call void @llvm.memcpy.p0.p0.i64(ptr nonnull align 1 %4, ptr align 1 %6, i64 %3, i1 false)
  %7 = tail call noalias noundef nonnull dereferenceable(32) ptr @_Znwm(i64 noundef 32) #28
  invoke void @_ZN3net19QuicEncryptedPacketC1EPKcmb(ptr noundef nonnull align 8 dereferenceable(25) %7, ptr noundef nonnull %4, i64 noundef %3, i1 noundef zeroext true)
          to label %8 unwind label %9

8:                                                ; preds = %1
  ret ptr %7

9:                                                ; preds = %1
  %10 = landingpad { ptr, i32 }
          cleanup
  tail call void @_ZdlPv(ptr noundef nonnull %7) #29
  resume { ptr, i32 } %10
}